; Function Attrs: mustprogress nounwind uwtable
define dso_local void @_ZN17btFixedConstraintD0Ev(ptr noundef nonnull align 8 dereferenceable(1484) %0) unnamed_addr #4 align 2 personality ptr @__gxx_personality_v0 {
  invoke void @_Z21btAlignedFreeInternalPv(ptr noundef nonnull %0)
          to label %_ZN30btGeneric6DofSpring2ConstraintdlEPv.exit unwind label %2

2:                                                ; preds = %1
  %3 = landingpad { ptr, i32 }
          catch ptr null
  %4 = extractvalue { ptr, i32 } %3, 0
  tail call void @__clang_call_terminate(ptr %4) #12
  unreachable

_ZN30btGeneric6DofSpring2ConstraintdlEPv.exit:    ; preds = %1
  ret void
}